; Function Attrs: mustprogress uwtable
define noundef nonnull align 8 dereferenceable(60) ptr @_ZN6icu_7710CharString14appendPathPartENS_11StringPieceER10UErrorCode(ptr noundef nonnull returned align 8 dereferenceable(60) %0, ptr %1, i32 %2, ptr noundef nonnull align 4 dereferenceable(4) %3) local_unnamed_addr #1 align 2 {
  %5 = load i32, ptr %3, align 4, !tbaa !13
  %6 = icmp sgt i32 %5, 0
  %7 = icmp eq i32 %2, 0
  %or.cond = select i1 %6, i1 true, i1 %7
  br i1 %or.cond, label %32, label %8

8:                                                ; preds = %4
  %9 = getelementptr inbounds nuw i8, ptr %0, i64 56
  %10 = load i32, ptr %9, align 8, !tbaa !15
  %11 = icmp sgt i32 %10, 0
  br i1 %11, label %12, label %_ZN6icu_7710CharString6appendEcR10UErrorCode.exit

12:                                               ; preds = %8
  %13 = load ptr, ptr %0, align 8, !tbaa !3
  %14 = zext nneg i32 %10 to i64
  %15 = getelementptr i8, ptr %13, i64 %14
  %16 = getelementptr i8, ptr %15, i64 -1
  %17 = load i8, ptr %16, align 1, !tbaa !17
  %.not7 = icmp eq i8 %17, 47
  br i1 %.not7, label %_ZN6icu_7710CharString6appendEcR10UErrorCode.exit, label %18

18:                                               ; preds = %12
  %19 = add nuw nsw i32 %10, 2
  %20 = tail call noundef signext i8 @_ZN6icu_7710CharString14ensureCapacityEiiR10UErrorCode(ptr noundef nonnull align 8 dereferenceable(60) %0, i32 noundef %19, i32 noundef 0, ptr noundef nonnull align 4 dereferenceable(4) %3)
  %.not.i = icmp eq i8 %20, 0
  br i1 %.not.i, label %_ZN6icu_7710CharString6appendEcR10UErrorCode.exit, label %21

21:                                               ; preds = %18
  %22 = load i32, ptr %9, align 8, !tbaa !15
  %23 = add nsw i32 %22, 1
  store i32 %23, ptr %9, align 8, !tbaa !15
  %24 = sext i32 %22 to i64
  %25 = load ptr, ptr %0, align 8, !tbaa !3
  %26 = getelementptr inbounds i8, ptr %25, i64 %24
  store i8 47, ptr %26, align 1, !tbaa !17
  %27 = load i32, ptr %9, align 8, !tbaa !15
  %28 = sext i32 %27 to i64
  %29 = load ptr, ptr %0, align 8, !tbaa !3
  %30 = getelementptr inbounds i8, ptr %29, i64 %28
  store i8 0, ptr %30, align 1, !tbaa !17
  br label %_ZN6icu_7710CharString6appendEcR10UErrorCode.exit

_ZN6icu_7710CharString6appendEcR10UErrorCode.exit: ; preds = %21, %18, %12, %8
  %31 = tail call noundef nonnull align 8 dereferenceable(60) ptr @_ZN6icu_7710CharString6appendEPKciR10UErrorCode(ptr noundef nonnull align 8 dereferenceable(60) %0, ptr noundef %1, i32 noundef %2, ptr noundef nonnull align 4 dereferenceable(4) %3)
  br label %32

32:                                               ; preds = %4, %_ZN6icu_7710CharString6appendEcR10UErrorCode.exit
  ret ptr %0
}